Certificate:
    Data:
        Version: 3 (0x2)
        Serial Number:
            35:a2:d1:80:11:19:b7:a4:d3:54:7f:f4:30:a7:49:4b:e4:d3:2b:3a
        Signature Algorithm: sha256WithRSAEncryption
        Issuer: CN = localhost
        Validity
            Not Before: Aug  2 15:52:36 2023 GMT
            Not After : Sep  1 15:52:36 2023 GMT
        Subject: CN = localhost
        Subject Public Key Info:
            Public Key Algorithm: rsaEncryption
                Public-Key: (2048 bit)
                Modulus:
                    00:c6:ea:75:fa:68:cc:f9:d2:6a:44:e3:24:7c:1e:
                    f4:5e:1a:b6:b3:b3:32:90:e0:06:7d:ca:8a:a8:a1:
                    63:87:82:d2:dd:76:a2:9d:12:18:3a:d9:78:70:9e:
                    f9:e5:c7:ee:fa:2d:94:69:d2:94:4d:08:32:59:7f:
                    12:5a:81:6d:d2:65:a1:13:0a:a7:fc:fd:60:12:37:
                    42:db:9c:ea:17:a3:3a:61:32:83:c7:79:08:f3:e8:
                    7c:fb:a5:ac:5c:19:52:0a:c5:24:d1:67:8c:f7:c3:
                    7a:e7:f0:9c:c8:f3:0b:1e:e5:67:8c:e0:cd:38:1f:
                    6c:50:69:5e:93:f5:ca:bf:d8:33:27:7c:20:48:f8:
                    a2:17:b7:51:47:59:39:46:d6:ae:a5:da:c2:67:cf:
                    23:36:9d:1c:98:e8:2e:31:8c:3f:26:00:7b:03:57:
                    45:cb:8f:8e:b3:41:7e:88:b7:f0:0b:1f:6a:9f:8e:
                    00:71:43:f4:cb:ad:ed:a5:d0:d4:81:83:2e:cd:de:
                    0c:7e:9a:cf:7d:c8:f5:70:da:9b:6e:ce:7f:78:d8:
                    62:79:72:67:77:98:90:85:96:d8:f2:e2:59:75:c6:
                    1b:42:cc:81:b5:01:fc:32:62:75:0b:b2:fe:dd:24:
                    15:95:ee:d7:15:ce:70:41:1d:0c:fa:88:35:7d:c0:
                    cf:b1
                Exponent: 65537 (0x10001)
        X509v3 extensions:
            X509v3 Subject Key Identifier:
                D7:21:73:0C:BD:72:2C:86:4C:77:60:DB:CB:81:52:E6:85:6B:88:A7
            X509v3 Authority Key Identifier:
                D7:21:73:0C:BD:72:2C:86:4C:77:60:DB:CB:81:52:E6:85:6B:88:A7
            X509v3 Basic Constraints: critical
                CA:TRUE
    Signature Algorithm: sha256WithRSAEncryption
    Signature Value:
        3a:6a:30:53:de:3a:b8:e8:77:e3:8e:5a:86:3b:9d:a9:30:08:
        76:4f:4c:30:20:f2:41:e4:06:9f:1a:1b:fd:8a:d7:28:7b:e8:
        ef:21:54:11:d8:b4:0a:ce:2c:8e:1d:f2:11:20:4f:bc:e5:a4:
        d8:e1:66:1a:c3:29:48:ee:fa:bd:1f:86:75:8a:c9:83:9d:12:
        21:04:a0:3b:8b:0b:a6:3e:cb:0a:5e:49:ed:fa:e1:1c:ce:13:
        98:77:6b:70:0a:75:9b:bf:55:39:b3:47:6b:23:77:91:c9:08:
        54:0c:88:07:7f:10:cc:3e:81:e2:eb:db:40:31:85:f5:21:8a:
        42:f4:f8:7c:a1:f6:2d:57:3b:91:1b:36:3a:d5:dd:82:9d:b1:
        2f:62:99:06:96:97:37:ca:dc:79:4a:78:55:c4:09:b8:60:9a:
        03:53:e7:c1:88:18:98:79:40:ae:98:c0:a2:c5:77:7d:7b:7f:
        23:18:40:50:eb:4c:61:fb:8c:90:fb:1d:f1:fe:08:6b:65:46:
        5a:ca:bc:6e:0f:84:eb:e9:ce:60:d4:e0:11:c8:ba:2a:c2:be:
        b7:f1:13:62:ab:5b:7a:48:52:c3:21:b4:7f:5a:78:60:3f:ce:
        67:d7:1f:73:8d:41:83:7b:e0:76:17:dd:d3:75:e1:d3:73:f0:
        bd:49:53:bc
-----BEGIN CERTIFICATE-----
MIIDCTCCAfGgAwIBAgIUNaLRgBEZt6TTVH/0MKdJS+TTKzowDQYJKoZIhvcNAQEL
BQAwFDESMBAGA1UEAwwJbG9jYWxob3N0MB4XDTIzMDgwMjE1NTIzNloXDTIzMDkw
MTE1NTIzNlowFDESMBAGA1UEAwwJbG9jYWxob3N0MIIBIjANBgkqhkiG9w0BAQEF
AAOCAQ8AMIIBCgKCAQEAxup1+mjM+dJqROMkfB70Xhq2s7MykOAGfcqKqKFjh4LS
3XainRIYOtl4cJ755cfu+i2UadKUTQgyWX8SWoFt0mWhEwqn/P1gEjdC25zqF6M6
YTKDx3kI8+h8+6WsXBlSCsUk0WeM98N65/CcyPMLHuVnjODNOB9sUGlek/XKv9gz
J3wgSPiiF7dRR1k5RtaupdrCZ88jNp0cmOguMYw/JgB7A1dFy4+Os0F+iLfwCx9q
n44AcUP0y63tpdDUgYMuzd4MfprPfcj1cNqbbs5/eNhieXJnd5iQhZbY8uJZdcYb
QsyBtQH8MmJ1C7L+3SQVle7XFc5wQR0M+og1fcDPsQIDAQABo1MwUTAdBgNVHQ4E
FgQU1yFzDL1yLIZMd2Dby4FS5oVriKcwHwYDVR0jBBgwFoAU1yFzDL1yLIZMd2Db
y4FS5oVriKcwDwYDVR0TAQH/BAUwAwEB/zANBgkqhkiG9w0BAQsFAAOCAQEAOmow
U946uOh3445ahjudqTAIdk9MMCDyQeQGnxob/YrXKHvo7yFUEdi0Cs4sjh3yESBP
vOWk2OFmGsMpSO76vR+GdYrJg50SIQSgO4sLpj7LCl5J7frhHM4TmHdrcAp1m79V
ObNHayN3kckIVAyIB38QzD6B4uvbQDGF9SGKQvT4fKH2LVc7kRs2OtXdgp2xL2KZ
BpaXN8rceUp4VcQJuGCaA1PnwYgYmHlArpjAosV3fXt/IxhAUOtMYfuMkPsd8f4I
a2VGWsq8bg+E6+nOYNTgEci6KsK+t/ETYqtbekhSwyG0f1p4YD/OZ9cfc41Bg3vg
dhfd03Xh03PwvUlTvA==
-----END CERTIFICATE-----
